; ModuleID = 'source-C-CXX/32/1271.c'
source_filename = "source-C-CXX/32/1271.c"
target datalayout = "e-m:e-p270:32:32-p271:32:32-p272:64:64-i64:64-f80:128-n8:16:32:64-S128"
target triple = "x86_64-pc-linux-gnu"

@.str = private unnamed_addr constant [3 x i8] c"%d\00", align 1
@.str.1 = private unnamed_addr constant [3 x i8] c"%s\00", align 1

; Function Attrs: nofree nounwind sspstrong uwtable
define dso_local i32 @main() local_unnamed_addr #0 {
  %1 = alloca i32, align 4
  %2 = alloca [1000 x i32], align 16
  %3 = alloca [1000 x [256 x i8]], align 16
  %4 = bitcast i32* %1 to i8*
  call void @llvm.lifetime.start.p0i8(i64 4, i8* nonnull %4) #5
  %5 = bitcast [1000 x i32]* %2 to i8*
  call void @llvm.lifetime.start.p0i8(i64 4000, i8* nonnull %5) #5
  %6 = call i32 (i8*, ...) @__isoc99_scanf(i8* getelementptr inbounds ([3 x i8], [3 x i8]* @.str, i64 0, i64 0), i32* nonnull %1)
  %7 = getelementptr inbounds [1000 x [256 x i8]], [1000 x [256 x i8]]* %3, i64 0, i64 0, i64 0
  call void @llvm.lifetime.start.p0i8(i64 256000, i8* nonnull %7) #5
  %8 = load i32, i32* %1, align 4, !tbaa !5
  %9 = icmp sgt i32 %8, 0
  br i1 %9, label %12, label %66

10:                                               ; preds = %12
  %11 = icmp sgt i32 %20, 0
  br i1 %11, label %23, label %66

12:                                               ; preds = %0, %12
  %13 = phi i64 [ %19, %12 ], [ 0, %0 ]
  %14 = getelementptr inbounds [1000 x [256 x i8]], [1000 x [256 x i8]]* %3, i64 0, i64 %13, i64 0
  %15 = call i32 (i8*, ...) @__isoc99_scanf(i8* getelementptr inbounds ([3 x i8], [3 x i8]* @.str.1, i64 0, i64 0), i8* nonnull %14)
  %16 = call i64 @strlen(i8* noundef nonnull %14) #6
  %17 = trunc i64 %16 to i32
  %18 = getelementptr inbounds [1000 x i32], [1000 x i32]* %2, i64 0, i64 %13
  store i32 %17, i32* %18, align 4, !tbaa !5
  %19 = add nuw nsw i64 %13, 1
  %20 = load i32, i32* %1, align 4, !tbaa !5
  %21 = sext i32 %20 to i64
  %22 = icmp slt i64 %19, %21
  br i1 %22, label %12, label %10, !llvm.loop !9

23:                                               ; preds = %10, %45
  %24 = phi i64 [ %48, %45 ], [ 0, %10 ]
  %25 = getelementptr inbounds [1000 x i32], [1000 x i32]* %2, i64 0, i64 %24
  %26 = load i32, i32* %25, align 4, !tbaa !5
  %27 = icmp sgt i32 %26, 0
  br i1 %27, label %28, label %45

28:                                               ; preds = %23
  %29 = zext i32 %26 to i64
  %30 = and i64 %29, 1
  %31 = icmp eq i32 %26, 1
  br i1 %31, label %34, label %32

32:                                               ; preds = %28
  %33 = and i64 %29, 4294967294
  br label %52

34:                                               ; preds = %72, %28
  %35 = phi i64 [ 0, %28 ], [ %73, %72 ]
  %36 = icmp eq i64 %30, 0
  br i1 %36, label %45, label %37

37:                                               ; preds = %34
  %38 = getelementptr inbounds [1000 x [256 x i8]], [1000 x [256 x i8]]* %3, i64 0, i64 %24, i64 %35
  %39 = load i8, i8* %38, align 1, !tbaa !11
  switch i8 %39, label %45 [
    i8 84, label %43
    i8 65, label %42
    i8 67, label %41
    i8 71, label %40
  ]

40:                                               ; preds = %37
  br label %43

41:                                               ; preds = %37
  br label %43

42:                                               ; preds = %37
  br label %43

43:                                               ; preds = %42, %41, %40, %37
  %44 = phi i8 [ 71, %41 ], [ 67, %40 ], [ 84, %42 ], [ 65, %37 ]
  store i8 %44, i8* %38, align 1, !tbaa !11
  br label %45

45:                                               ; preds = %34, %37, %43, %23
  %46 = getelementptr inbounds [1000 x [256 x i8]], [1000 x [256 x i8]]* %3, i64 0, i64 %24, i64 0
  %47 = call i32 @puts(i8* nonnull %46)
  %48 = add nuw nsw i64 %24, 1
  %49 = load i32, i32* %1, align 4, !tbaa !5
  %50 = sext i32 %49 to i64
  %51 = icmp slt i64 %48, %50
  br i1 %51, label %23, label %66, !llvm.loop !12

52:                                               ; preds = %72, %32
  %53 = phi i64 [ 0, %32 ], [ %73, %72 ]
  %54 = phi i64 [ %33, %32 ], [ %74, %72 ]
  %55 = getelementptr inbounds [1000 x [256 x i8]], [1000 x [256 x i8]]* %3, i64 0, i64 %24, i64 %53
  %56 = load i8, i8* %55, align 2, !tbaa !11
  switch i8 %56, label %62 [
    i8 84, label %60
    i8 65, label %57
    i8 67, label %58
    i8 71, label %59
  ]

57:                                               ; preds = %52
  br label %60

58:                                               ; preds = %52
  br label %60

59:                                               ; preds = %52
  br label %60

60:                                               ; preds = %52, %57, %59, %58
  %61 = phi i8 [ 71, %58 ], [ 67, %59 ], [ 84, %57 ], [ 65, %52 ]
  store i8 %61, i8* %55, align 2, !tbaa !11
  br label %62

62:                                               ; preds = %60, %52
  %63 = or i64 %53, 1
  %64 = getelementptr inbounds [1000 x [256 x i8]], [1000 x [256 x i8]]* %3, i64 0, i64 %24, i64 %63
  %65 = load i8, i8* %64, align 1, !tbaa !11
  switch i8 %65, label %72 [
    i8 84, label %70
    i8 65, label %69
    i8 67, label %68
    i8 71, label %67
  ]

66:                                               ; preds = %45, %0, %10
  call void @llvm.lifetime.end.p0i8(i64 256000, i8* nonnull %7) #5
  call void @llvm.lifetime.end.p0i8(i64 4000, i8* nonnull %5) #5
  call void @llvm.lifetime.end.p0i8(i64 4, i8* nonnull %4) #5
  ret i32 0

67:                                               ; preds = %62
  br label %70

68:                                               ; preds = %62
  br label %70

69:                                               ; preds = %62
  br label %70

70:                                               ; preds = %69, %68, %67, %62
  %71 = phi i8 [ 71, %68 ], [ 67, %67 ], [ 84, %69 ], [ 65, %62 ]
  store i8 %71, i8* %64, align 1, !tbaa !11
  br label %72

72:                                               ; preds = %70, %62
  %73 = add nuw nsw i64 %53, 2
  %74 = add i64 %54, -2
  %75 = icmp eq i64 %74, 0
  br i1 %75, label %34, label %52, !llvm.loop !13
}

; Function Attrs: argmemonly mustprogress nofree nosync nounwind willreturn
declare void @llvm.lifetime.start.p0i8(i64 immarg, i8* nocapture) #1

; Function Attrs: nofree nounwind
declare noundef i32 @__isoc99_scanf(i8* nocapture noundef readonly, ...) local_unnamed_addr #2

; Function Attrs: argmemonly mustprogress nofree nounwind readonly willreturn
declare i64 @strlen(i8* nocapture) local_unnamed_addr #3

; Function Attrs: argmemonly mustprogress nofree nosync nounwind willreturn
declare void @llvm.lifetime.end.p0i8(i64 immarg, i8* nocapture) #1

; Function Attrs: nofree nounwind
declare noundef i32 @puts(i8* nocapture noundef readonly) local_unnamed_addr #4


!llvm.module.flags = !{!0, !1, !2, !3}
!llvm.ident = !{!4}

!0 = !{i32 1, !"wchar_size", i32 4}
!1 = !{i32 7, !"PIC Level", i32 2}
!2 = !{i32 7, !"PIE Level", i32 2}
!3 = !{i32 7, !"uwtable", i32 1}
!4 = !{!"clang version 13.0.0"}
!5 = !{!6, !6, i64 0}
!6 = !{!"int", !7, i64 0}
!7 = !{!"omnipotent char", !8, i64 0}
!8 = !{!"Simple C/C++ TBAA"}
!9 = distinct !{!9, !10}
!10 = !{!"llvm.loop.mustprogress"}
!11 = !{!7, !7, i64 0}
!12 = distinct !{!12, !10}
!13 = distinct !{!13, !10}
